; Function Attrs: nounwind uwtable
define void @Gia_ManMulFindAssignGroup(ptr noundef captures(none) %0, i32 noundef %1, ptr noundef readonly captures(none) %2) local_unnamed_addr #0 {
  %4 = getelementptr i8, ptr %0, i64 4
  %.val11 = load i32, ptr %4, align 4, !tbaa !33
  %5 = icmp sgt i32 %.val11, 0
  br i1 %5, label %.lr.ph, label %.critedge

.lr.ph:                                           ; preds = %3
  %6 = getelementptr i8, ptr %0, i64 8
  %.val9 = load ptr, ptr %6, align 8, !tbaa !35
  %7 = getelementptr i8, ptr %2, i64 8
  %.val10 = load ptr, ptr %7, align 8, !tbaa !35
  br label %8

8:                                                ; preds = %.lr.ph, %8
  %indvars.iv = phi i64 [ 0, %.lr.ph ], [ %indvars.iv.next, %8 ]
  %9 = getelementptr inbounds nuw i32, ptr %.val9, i64 %indvars.iv
  %10 = load i32, ptr %9, align 4, !tbaa !29
  %11 = sext i32 %10 to i64
  %12 = getelementptr inbounds i32, ptr %.val10, i64 %11
  store i32 %1, ptr %12, align 4, !tbaa !29
  %indvars.iv.next = add nuw nsw i64 %indvars.iv, 1
  %.val = load i32, ptr %4, align 4, !tbaa !33
  %13 = sext i32 %.val to i64
  %14 = icmp slt i64 %indvars.iv.next, %13
  br i1 %14, label %8, label %.critedge, !llvm.loop !92

.critedge:                                        ; preds = %8, %3
  %.val.lcssa = phi i32 [ %.val11, %3 ], [ %.val, %8 ]
  %15 = load i32, ptr %0, align 8, !tbaa !34
  %16 = icmp eq i32 %.val.lcssa, %15
  br i1 %16, label %17, label %.Vec_IntGrow.exit10_crit_edge.i

.Vec_IntGrow.exit10_crit_edge.i:                  ; preds = %.critedge
  %.phi.trans.insert.i = getelementptr inbounds nuw i8, ptr %0, i64 8
  %.pre.i = load ptr, ptr %.phi.trans.insert.i, align 8, !tbaa !35
  br label %Vec_IntPush.exit

17:                                               ; preds = %.critedge
  %18 = icmp slt i32 %.val.lcssa, 16
  br i1 %18, label %19, label %27

19:                                               ; preds = %17
  %20 = getelementptr inbounds nuw i8, ptr %0, i64 8
  %21 = load ptr, ptr %20, align 8, !tbaa !35
  %.not9.i.i = icmp eq ptr %21, null
  br i1 %.not9.i.i, label %24, label %22

22:                                               ; preds = %19
  %23 = tail call dereferenceable_or_null(64) ptr @realloc(ptr noundef nonnull %21, i64 noundef 64) #20
  br label %Vec_IntGrow.exit.i

24:                                               ; preds = %19
  %25 = tail call noalias dereferenceable_or_null(64) ptr @malloc(i64 noundef 64) #21
  br label %Vec_IntGrow.exit.i

Vec_IntGrow.exit.i:                               ; preds = %24, %22
  %26 = phi ptr [ %23, %22 ], [ %25, %24 ]
  store ptr %26, ptr %20, align 8, !tbaa !35
  store i32 16, ptr %0, align 8, !tbaa !34
  br label %Vec_IntPush.exit

27:                                               ; preds = %17
  %28 = shl nuw nsw i32 %.val.lcssa, 1
  %29 = getelementptr inbounds nuw i8, ptr %0, i64 8
  %30 = load ptr, ptr %29, align 8, !tbaa !35
  %.not9.i9.i = icmp eq ptr %30, null
  %31 = zext nneg i32 %28 to i64
  %32 = shl nuw nsw i64 %31, 2
  br i1 %.not9.i9.i, label %35, label %33

33:                                               ; preds = %27
  %34 = tail call ptr @realloc(ptr noundef nonnull %30, i64 noundef %32) #20
  br label %37

35:                                               ; preds = %27
  %36 = tail call noalias ptr @malloc(i64 noundef %32) #21
  br label %37

37:                                               ; preds = %35, %33
  %38 = phi ptr [ %34, %33 ], [ %36, %35 ]
  store ptr %38, ptr %29, align 8, !tbaa !35
  store i32 %28, ptr %0, align 8, !tbaa !34
  br label %Vec_IntPush.exit

Vec_IntPush.exit:                                 ; preds = %.Vec_IntGrow.exit10_crit_edge.i, %Vec_IntGrow.exit.i, %37
  %39 = phi ptr [ %.pre.i, %.Vec_IntGrow.exit10_crit_edge.i ], [ %38, %37 ], [ %26, %Vec_IntGrow.exit.i ]
  %40 = load i32, ptr %4, align 4, !tbaa !33
  %41 = add nsw i32 %40, 1
  store i32 %41, ptr %4, align 4, !tbaa !33
  %42 = sext i32 %40 to i64
  %43 = getelementptr inbounds i32, ptr %39, i64 %42
  store i32 %1, ptr %43, align 4, !tbaa !29
  ret void
}